
exm.elf:     file format elf64-littleriscv

SYMBOL TABLE:
000000008c000000 l    d  .text	0000000000000000 .text
0000000000000000 l    d  .comment	0000000000000000 .comment
0000000000000000 l    d  .riscv.attributes	0000000000000000 .riscv.attributes
0000000000000000 l    df *ABS*	0000000000000000 exm.c
000000008c000000 g     F .text	0000000000000078 main



Disassembly of section .text:

000000008c000000 <main>:
    8c000000:	ff010113          	addi	sp,sp,-16
    8c000004:	00813423          	sd	s0,8(sp)
    8c000008:	01010413          	addi	s0,sp,16
    8c00000c:	02300793          	li	a5,35
    8c000010:	01a79793          	slli	a5,a5,0x1a
    8c000014:	00a00713          	li	a4,10
    8c000018:	00e7a023          	sw	a4,0(a5)
    8c00001c:	02300793          	li	a5,35
    8c000020:	01a79793          	slli	a5,a5,0x1a
    8c000024:	00478793          	addi	a5,a5,4
    8c000028:	00200713          	li	a4,2
    8c00002c:	00e7a023          	sw	a4,0(a5)
    8c000030:	02300793          	li	a5,35
    8c000034:	01a79793          	slli	a5,a5,0x1a
    8c000038:	00478793          	addi	a5,a5,4
    8c00003c:	0007a683          	lw	a3,0(a5)
    8c000040:	02300793          	li	a5,35
    8c000044:	01a79793          	slli	a5,a5,0x1a
    8c000048:	0007a703          	lw	a4,0(a5)
    8c00004c:	02300793          	li	a5,35
    8c000050:	01a79793          	slli	a5,a5,0x1a
    8c000054:	00878793          	addi	a5,a5,8
    8c000058:	00e6873b          	addw	a4,a3,a4
    8c00005c:	0007071b          	sext.w	a4,a4
    8c000060:	00e7a023          	sw	a4,0(a5)
    8c000064:	00000793          	li	a5,0
    8c000068:	00078513          	mv	a0,a5
    8c00006c:	00813403          	ld	s0,8(sp)
    8c000070:	01010113          	addi	sp,sp,16
    8c000074:	00008067          	ret
